; Function Attrs: nounwind uwtable
define hidden void @mi_free(ptr noundef %0) #3 {
  %2 = ptrtoint ptr %0 to i64
  %3 = add i64 %2, -1
  %4 = and i64 %3, -33554432
  %5 = inttoptr i64 %4 to ptr
  %6 = icmp slt i64 %3, 33554432
  %7 = icmp eq i64 %4, 0
  %8 = or i1 %6, %7
  br i1 %8, label %mi_free_block_local.exit, label %9, !prof !18

9:                                                ; preds = %1
  %10 = tail call ptr @llvm.thread.pointer()
  %11 = ptrtoint ptr %10 to i64
  %12 = getelementptr inbounds nuw i8, ptr %5, i64 280
  %13 = load atomic i64, ptr %12 monotonic, align 8
  %14 = icmp eq i64 %13, %11
  %15 = sub i64 %2, %4
  %16 = lshr i64 %15, 16
  %17 = getelementptr inbounds nuw i8, ptr %5, i64 288
  %18 = getelementptr inbounds nuw [513 x %struct.mi_page_s], ptr %17, i64 0, i64 %16
  %19 = getelementptr inbounds nuw i8, ptr %18, i64 4
  %20 = load i32, ptr %19, align 4, !tbaa !23
  %21 = zext i32 %20 to i64
  %22 = sub nsw i64 0, %21
  %23 = getelementptr inbounds i8, ptr %18, i64 %22
  br i1 %14, label %24, label %38, !prof !8

24:                                               ; preds = %9
  %25 = getelementptr inbounds nuw i8, ptr %23, i64 14
  %26 = load i8, ptr %25, align 2, !tbaa !24
  %27 = icmp eq i8 %26, 0
  br i1 %27, label %28, label %37, !prof !8

28:                                               ; preds = %24
  %29 = getelementptr inbounds nuw i8, ptr %23, i64 24
  %30 = load ptr, ptr %29, align 8, !tbaa !25
  %31 = ptrtoint ptr %30 to i64
  store i64 %31, ptr %0, align 8, !tbaa !19
  store ptr %0, ptr %29, align 8, !tbaa !25
  %32 = getelementptr inbounds nuw i8, ptr %23, i64 32
  %33 = load i16, ptr %32, align 8, !tbaa !21
  %34 = add i16 %33, -1
  store i16 %34, ptr %32, align 8, !tbaa !21
  %35 = icmp eq i16 %34, 0
  br i1 %35, label %36, label %mi_free_block_local.exit, !prof !18

36:                                               ; preds = %28
  tail call void @_mi_page_retire(ptr noundef nonnull %23) #19
  br label %mi_free_block_local.exit

37:                                               ; preds = %24
  tail call fastcc void @mi_free_generic_local(ptr noundef nonnull %23, ptr noundef %0) #20
  br label %mi_free_block_local.exit

38:                                               ; preds = %9
  tail call fastcc void @mi_free_generic_mt(ptr noundef nonnull %23, ptr noundef nonnull %5, ptr noundef %0) #20
  br label %mi_free_block_local.exit

mi_free_block_local.exit:                         ; preds = %36, %28, %38, %37, %1
  ret void
}